target datalayout = "e-m:e-p270:32:32-p271:32:32-p272:64:64-i64:64-i128:128-f80:128-n8:16:32:64-S128"
target triple = "x86_64-pc-linux-gnu"

@.str.5 = private unnamed_addr constant [15 x i8] c"sparse-index.c\00", align 1
@.str.13 = private unnamed_addr constant [39 x i8] c"ensure_full_index() must get an index!\00", align 1

; Function Attrs: nounwind uwtable
define dso_local void @ensure_full_index(ptr noundef %0) #0 {
  %2 = alloca ptr, align 8
  store ptr %0, ptr %2, align 8, !tbaa !31
  %3 = load ptr, ptr %2, align 8, !tbaa !31
  %4 = icmp ne ptr %3, null
  br i1 %4, label %6, label %5

5:                                                ; preds = %1
  call void (ptr, i32, ptr, ...) @BUG_fl(ptr noundef @.str.5, i32 noundef 461, ptr noundef @.str.13) #11
  unreachable

6:                                                ; preds = %1
  %7 = load ptr, ptr %2, align 8, !tbaa !31
  call void @expand_index(ptr noundef %7, ptr noundef null)
  ret void
}

; Function Attrs: nounwind uwtable
define dso_local void @ensure_correct_sparsity(ptr noundef %0) #0 {
  %2 = alloca ptr, align 8
  store ptr %0, ptr %2, align 8, !tbaa !31
  %3 = load ptr, ptr %2, align 8, !tbaa !31
  %4 = call i32 @is_sparse_index_allowed(ptr noundef %3, i32 noundef 0)
  %5 = icmp ne i32 %4, 0
  br i1 %5, label %6, label %9

6:                                                ; preds = %1
  %7 = load ptr, ptr %2, align 8, !tbaa !31
  %8 = call i32 @convert_to_sparse(ptr noundef %7, i32 noundef 0)
  br label %11

9:                                                ; preds = %1
  %10 = load ptr, ptr %2, align 8, !tbaa !31
  call void @ensure_full_index(ptr noundef %10)
  br label %11

11:                                               ; preds = %9, %6
  ret void
}