; Function Attrs: nounwind uwtable
define dso_local void @ensure_correct_sparsity(ptr noundef %0) local_unnamed_addr #0 {
  %2 = tail call i32 @is_sparse_index_allowed(ptr noundef %0, i32 noundef 0)
  %.not = icmp eq i32 %2, 0
  br i1 %.not, label %5, label %3

3:                                                ; preds = %1
  %4 = tail call i32 @convert_to_sparse(ptr noundef %0, i32 noundef 0)
  br label %7

5:                                                ; preds = %1
  %.not.i = icmp eq ptr %0, null
  br i1 %.not.i, label %6, label %ensure_full_index.exit

6:                                                ; preds = %5
  tail call void (ptr, i32, ptr, ...) @BUG_fl(ptr noundef nonnull @.str.5, i32 noundef 461, ptr noundef nonnull @.str.13) #14
  unreachable

ensure_full_index.exit:                           ; preds = %5
  tail call void @expand_index(ptr noundef nonnull %0, ptr noundef null)
  br label %7

7:                                                ; preds = %ensure_full_index.exit, %3
  ret void
}